target datalayout = "e-m:e-p270:32:32-p271:32:32-p272:64:64-i64:64-i128:128-f80:128-n8:16:32:64-S128"
target triple = "x86_64-pc-linux-gnu"

%struct.ScratchBuf = type { [65536 x i8], i32 }

@scratch_buffer = dso_local global %struct.ScratchBuf zeroinitializer, align 4
@.str.1 = private unnamed_addr constant [40 x i8] c"Scratch buffer size (%d chars) exceeded\00", align 1

; Function Attrs: nounwind uwtable
define dso_local void @scratch_buffer_append_len(ptr noundef %0, i64 noundef %1) #0 {
  %3 = alloca ptr, align 8
  %4 = alloca i64, align 8
  store ptr %0, ptr %3, align 8
  store i64 %1, ptr %4, align 8
  %5 = load i64, ptr %4, align 8
  %6 = load i32, ptr getelementptr inbounds (%struct.ScratchBuf, ptr @scratch_buffer, i32 0, i32 1), align 4
  %7 = zext i32 %6 to i64
  %8 = add i64 %5, %7
  %9 = icmp ugt i64 %8, 65535
  br i1 %9, label %10, label %11

10:                                               ; preds = %2
  call void (ptr, ...) @error_exit(ptr noundef @.str.1, i32 noundef 65535) #9
  unreachable

11:                                               ; preds = %2
  %12 = load i32, ptr getelementptr inbounds (%struct.ScratchBuf, ptr @scratch_buffer, i32 0, i32 1), align 4
  %13 = zext i32 %12 to i64
  %14 = getelementptr inbounds i8, ptr @scratch_buffer, i64 %13
  %15 = load ptr, ptr %3, align 8
  %16 = load i64, ptr %4, align 8
  call void @llvm.memcpy.p0.p0.i64(ptr align 1 %14, ptr align 1 %15, i64 %16, i1 false)
  %17 = load i64, ptr %4, align 8
  %18 = trunc i64 %17 to i32
  %19 = load i32, ptr getelementptr inbounds (%struct.ScratchBuf, ptr @scratch_buffer, i32 0, i32 1), align 4
  %20 = add i32 %19, %18
  store i32 %20, ptr getelementptr inbounds (%struct.ScratchBuf, ptr @scratch_buffer, i32 0, i32 1), align 4
  ret void
}