; Function Attrs: nounwind uwtable
define dso_local void @scratch_buffer_append_len(ptr nocapture noundef readonly %0, i64 noundef %1) local_unnamed_addr #7 {
  %3 = load i32, ptr getelementptr inbounds (%struct.ScratchBuf, ptr @scratch_buffer, i64 0, i32 1), align 4
  %4 = zext i32 %3 to i64
  %5 = add i64 %4, %1
  %6 = icmp ugt i64 %5, 65535
  br i1 %6, label %7, label %8

7:                                                ; preds = %2
  tail call void (ptr, ...) @error_exit(ptr noundef nonnull @.str.1, i32 noundef 65535) #22
  unreachable

8:                                                ; preds = %2
  %9 = getelementptr inbounds i8, ptr @scratch_buffer, i64 %4
  tail call void @llvm.memcpy.p0.p0.i64(ptr nonnull align 1 %9, ptr align 1 %0, i64 %1, i1 false)
  %10 = trunc i64 %1 to i32
  %11 = load i32, ptr getelementptr inbounds (%struct.ScratchBuf, ptr @scratch_buffer, i64 0, i32 1), align 4
  %12 = add i32 %11, %10
  store i32 %12, ptr getelementptr inbounds (%struct.ScratchBuf, ptr @scratch_buffer, i64 0, i32 1), align 4
  ret void
}